; Function Attrs: nounwind uwtable
define i32 @EVP_RAND_CTX_set_params(ptr noundef readonly captures(none) %0, ptr noundef %1) local_unnamed_addr #0 {
  %3 = load ptr, ptr %0, align 8, !tbaa !3
  %4 = getelementptr inbounds nuw i8, ptr %3, i64 112
  %5 = load ptr, ptr %4, align 8, !tbaa !37
  %.not.i = icmp eq ptr %5, null
  br i1 %.not.i, label %evp_rand_lock.exit.thread, label %evp_rand_lock.exit

evp_rand_lock.exit:                               ; preds = %2
  %6 = getelementptr inbounds nuw i8, ptr %0, i64 8
  %7 = load ptr, ptr %6, align 8, !tbaa !17
  %8 = tail call i32 %5(ptr noundef %7) #8
  %.not = icmp eq i32 %8, 0
  br i1 %.not, label %evp_rand_unlock.exit, label %evp_rand_lock.exit.evp_rand_lock.exit.thread_crit_edge

evp_rand_lock.exit.evp_rand_lock.exit.thread_crit_edge: ; preds = %evp_rand_lock.exit
  %.pre = load ptr, ptr %0, align 8, !tbaa !3
  br label %evp_rand_lock.exit.thread

evp_rand_lock.exit.thread:                        ; preds = %evp_rand_lock.exit.evp_rand_lock.exit.thread_crit_edge, %2
  %9 = phi ptr [ %.pre, %evp_rand_lock.exit.evp_rand_lock.exit.thread_crit_edge ], [ %3, %2 ]
  %10 = getelementptr inbounds nuw i8, ptr %9, i64 168
  %11 = load ptr, ptr %10, align 8, !tbaa !44
  %.not.i5 = icmp eq ptr %11, null
  br i1 %.not.i5, label %evp_rand_set_ctx_params_locked.exit, label %12

12:                                               ; preds = %evp_rand_lock.exit.thread
  %13 = getelementptr inbounds nuw i8, ptr %0, i64 8
  %14 = load ptr, ptr %13, align 8, !tbaa !17
  %15 = tail call i32 %11(ptr noundef %14, ptr noundef %1) #8
  %.pre10 = load ptr, ptr %0, align 8, !tbaa !3
  br label %evp_rand_set_ctx_params_locked.exit

evp_rand_set_ctx_params_locked.exit:              ; preds = %evp_rand_lock.exit.thread, %12
  %16 = phi ptr [ %.pre10, %12 ], [ %9, %evp_rand_lock.exit.thread ]
  %.0.i6 = phi i32 [ %15, %12 ], [ 1, %evp_rand_lock.exit.thread ]
  %17 = getelementptr inbounds nuw i8, ptr %16, i64 120
  %18 = load ptr, ptr %17, align 8, !tbaa !38
  %.not.i7 = icmp eq ptr %18, null
  br i1 %.not.i7, label %evp_rand_unlock.exit, label %19

19:                                               ; preds = %evp_rand_set_ctx_params_locked.exit
  %20 = getelementptr inbounds nuw i8, ptr %0, i64 8
  %21 = load ptr, ptr %20, align 8, !tbaa !17
  tail call void %18(ptr noundef %21) #8
  br label %evp_rand_unlock.exit

evp_rand_unlock.exit:                             ; preds = %19, %evp_rand_set_ctx_params_locked.exit, %evp_rand_lock.exit
  %.0 = phi i32 [ 0, %evp_rand_lock.exit ], [ %.0.i6, %evp_rand_set_ctx_params_locked.exit ], [ %.0.i6, %19 ]
  ret i32 %.0
}